target datalayout = "e-m:e-p270:32:32-p271:32:32-p272:64:64-i64:64-i128:128-f80:128-n8:16:32:64-S128"
target triple = "x86_64-pc-linux-gnu"

%"class.std::__cxx11::basic_string" = type { %"struct.std::__cxx11::basic_string<char>::_Alloc_hider", i64, %union.anon }
%"struct.std::__cxx11::basic_string<char>::_Alloc_hider" = type { ptr }
%union.anon = type { i64, [8 x i8] }
%"class.rocksdb::Status" = type { i8, i8, i8, i8, i8, i8, %"class.std::unique_ptr" }
%"class.std::unique_ptr" = type { %"struct.std::__uniq_ptr_data" }
%"struct.std::__uniq_ptr_data" = type { %"class.std::__uniq_ptr_impl" }
%"class.std::__uniq_ptr_impl" = type { %"class.std::tuple" }
%"class.std::tuple" = type { %"struct.std::_Tuple_impl" }
%"struct.std::_Tuple_impl" = type { %"struct.std::_Head_base.25" }
%"struct.std::_Head_base.25" = type { ptr }
%"class.std::__shared_count" = type { ptr }
%"struct.rocksdb::ConfigOptions" = type { i8, i8, i8, i8, i8, %"class.std::__cxx11::basic_string", i32, i8, i64, ptr, %"class.std::shared_ptr.159" }
%"class.std::shared_ptr.159" = type { %"class.std::__shared_ptr.160" }
%"class.std::__shared_ptr.160" = type { ptr, %"class.std::__shared_count" }

; Function Attrs: mustprogress uwtable
define void @_ZN7rocksdb31GetMemTableRepFactoryFromStringERKNSt7__cxx1112basic_stringIcSt11char_traitsIcESaIcEEEPSt10unique_ptrINS_18MemTableRepFactoryESt14default_deleteIS9_EE(ptr dead_on_unwind noalias writable sret(%"class.rocksdb::Status") align 8 %0, ptr noundef nonnull align 8 dereferenceable(32) %1, ptr noundef %2) #5 personality ptr @__gxx_personality_v0 {
  %4 = alloca ptr, align 8
  %5 = alloca ptr, align 8
  %6 = alloca ptr, align 8
  %7 = alloca %"struct.rocksdb::ConfigOptions", align 8
  %8 = alloca ptr, align 8
  %9 = alloca i32, align 4
  store ptr %0, ptr %4, align 8
  store ptr %1, ptr %5, align 8, !tbaa !25
  store ptr %2, ptr %6, align 8, !tbaa !206
  call void @llvm.lifetime.start.p0(i64 80, ptr %7) #4
  call void @_ZN7rocksdb13ConfigOptionsC1Ev(ptr noundef nonnull align 8 dereferenceable(80) %7)
  %10 = getelementptr inbounds nuw %"struct.rocksdb::ConfigOptions", ptr %7, i32 0, i32 1
  store i8 0, ptr %10, align 1, !tbaa !208
  %11 = getelementptr inbounds nuw %"struct.rocksdb::ConfigOptions", ptr %7, i32 0, i32 0
  store i8 0, ptr %11, align 8, !tbaa !216
  %12 = load ptr, ptr %5, align 8, !tbaa !25
  %13 = load ptr, ptr %6, align 8, !tbaa !206
  invoke void @_ZN7rocksdb18MemTableRepFactory16CreateFromStringERKNS_13ConfigOptionsERKNSt7__cxx1112basic_stringIcSt11char_traitsIcESaIcEEEPSt10unique_ptrIS0_St14default_deleteIS0_EE(ptr dead_on_unwind writable sret(%"class.rocksdb::Status") align 8 %0, ptr noundef nonnull align 8 dereferenceable(80) %7, ptr noundef nonnull align 8 dereferenceable(32) %12, ptr noundef %13)
          to label %14 unwind label %15

14:                                               ; preds = %3
  call void @_ZN7rocksdb13ConfigOptionsD2Ev(ptr noundef nonnull align 8 dereferenceable(80) %7) #4
  call void @llvm.lifetime.end.p0(i64 80, ptr %7) #4
  ret void

15:                                               ; preds = %3
  %16 = landingpad { ptr, i32 }
          cleanup
  %17 = extractvalue { ptr, i32 } %16, 0
  store ptr %17, ptr %8, align 8
  %18 = extractvalue { ptr, i32 } %16, 1
  store i32 %18, ptr %9, align 4
  call void @_ZN7rocksdb13ConfigOptionsD2Ev(ptr noundef nonnull align 8 dereferenceable(80) %7) #4
  call void @llvm.lifetime.end.p0(i64 80, ptr %7) #4
  br label %19

19:                                               ; preds = %15
  %20 = load ptr, ptr %8, align 8
  %21 = load i32, ptr %9, align 4
  %22 = insertvalue { ptr, i32 } poison, ptr %20, 0
  %23 = insertvalue { ptr, i32 } %22, i32 %21, 1
  resume { ptr, i32 } %23
}